Certificate:
    Data:
        Version: 3 (0x2)
        Serial Number: 1 (0x1)
    Signature Algorithm: sha256WithRSAEncryption
        Issuer: CN=ca.localdomain, C=FR, ST=BdR, L=Aix, O=fD, OU=Tests
        Validity
            Not Before: Jun  5 21:09:07 2019 GMT
            Not After : Jun  4 21:09:07 2020 GMT
        Subject: C=FR, ST=BdR, O=fD, OU=Tests, CN=hss.ng4T.com
        Subject Public Key Info:
            Public Key Algorithm: rsaEncryption
                Public-Key: (1024 bit)
                Modulus:
                    00:ee:2d:75:70:dc:82:5e:0c:45:e6:e4:d1:91:e5:
                    03:db:1a:cd:61:c2:a0:d6:94:95:46:19:6a:05:ce:
                    5a:50:4e:1b:9f:cc:57:5f:45:de:c6:ad:2f:17:b9:
                    be:dd:3e:60:ac:7c:f7:61:39:90:6f:c1:ec:84:ef:
                    0a:e5:d0:3c:6c:1a:21:44:52:3b:14:df:58:0b:43:
                    69:20:51:1e:24:8b:e5:55:1e:81:a0:32:04:d1:a9:
                    8c:7c:f9:62:97:57:f0:ee:7d:c1:95:c0:01:e2:ad:
                    3b:c0:3a:af:af:07:53:00:18:ea:e6:27:94:53:ce:
                    f5:77:35:4c:4e:76:67:f2:07
                Exponent: 65537 (0x10001)
        X509v3 extensions:
            X509v3 Basic Constraints: 
                CA:FALSE
            Netscape Comment: 
                OpenSSL Generated Certificate
            X509v3 Subject Key Identifier: 
                70:0C:52:78:D0:46:EC:4C:FD:A9:63:4E:BE:59:4A:21:79:6A:9F:EB
            X509v3 Authority Key Identifier: 
                keyid:D9:E1:EB:6F:40:6B:FC:38:1F:FA:2A:07:11:A6:D6:21:D8:B2:47:33

    Signature Algorithm: sha256WithRSAEncryption
         20:8f:21:a5:16:84:fb:44:f4:04:9d:a4:10:d7:b7:c6:02:49:
         fb:44:50:58:55:d6:db:61:dd:d6:e3:b1:bc:31:4d:73:e3:ff:
         03:ca:5b:73:76:d2:dd:90:91:c8:74:fd:34:b2:05:5c:ea:28:
         56:12:92:fc:83:65:14:73:c4:17:54:f9:71:0d:50:80:bc:95:
         89:f3:fb:ee:d6:50:07:80:52:61:08:4a:20:69:6e:a8:82:0b:
         f0:a1:96:48:87:96:ca:7a:49:cd:e3:1c:c8:63:1a:ce:a6:a0:
         3e:cc:68:aa:e7:83:ed:94:75:16:fb:2e:02:a6:92:83:84:ba:
         68:a8
-----BEGIN CERTIFICATE-----
MIICnzCCAgigAwIBAgIBATANBgkqhkiG9w0BAQsFADBfMRcwFQYDVQQDDA5jYS5s
b2NhbGRvbWFpbjELMAkGA1UEBhMCRlIxDDAKBgNVBAgMA0JkUjEMMAoGA1UEBwwD
QWl4MQswCQYDVQQKDAJmRDEOMAwGA1UECwwFVGVzdHMwHhcNMTkwNjA1MjEwOTA3
WhcNMjAwNjA0MjEwOTA3WjBPMQswCQYDVQQGEwJGUjEMMAoGA1UECAwDQmRSMQsw
CQYDVQQKDAJmRDEOMAwGA1UECwwFVGVzdHMxFTATBgNVBAMMDGhzcy5uZzRULmNv
bTCBnzANBgkqhkiG9w0BAQEFAAOBjQAwgYkCgYEA7i11cNyCXgxF5uTRkeUD2xrN
YcKg1pSVRhlqBc5aUE4bn8xXX0Xexq0vF7m+3T5grHz3YTmQb8HshO8K5dA8bBoh
RFI7FN9YC0NpIFEeJIvlVR6BoDIE0amMfPlil1fw7n3BlcAB4q07wDqvrwdTABjq
5ieUU871dzVMTnZn8gcCAwEAAaN7MHkwCQYDVR0TBAIwADAsBglghkgBhvhCAQ0E
HxYdT3BlblNTTCBHZW5lcmF0ZWQgQ2VydGlmaWNhdGUwHQYDVR0OBBYEFHAMUnjQ
RuxM/aljTr5ZSiF5ap/rMB8GA1UdIwQYMBaAFNnh629Aa/w4H/oqBxGm1iHYskcz
MA0GCSqGSIb3DQEBCwUAA4GBACCPIaUWhPtE9ASdpBDXt8YCSftEUFhV1tth3dbj
sbwxTXPj/wPKW3N20t2Qkch0/TSyBVzqKFYSkvyDZRRzxBdU+XENUIC8lYnz++7W
UAeAUmEISiBpbqiCC/ChlkiHlsp6Sc3jHMhjGs6moD7MaKrng+2UdRb7LgKmkoOE
umio
-----END CERTIFICATE-----
