Certificate:
    Data:
        Version: 3 (0x2)
        Serial Number: 1 (0x1)
    Signature Algorithm: sha256WithRSAEncryption
        Issuer: CN=mme.ng4T.com, C=FR, ST=PACA, L=Aix, O=Eurecom, OU=CM
        Validity
            Not Before: Jun  5 01:41:15 2019 GMT
            Not After : Jun  4 01:41:15 2020 GMT
        Subject: C=FR, ST=PACA, O=Eurecom, OU=CM, CN=mme.ng4T.com
        Subject Public Key Info:
            Public Key Algorithm: rsaEncryption
                Public-Key: (1024 bit)
                Modulus:
                    00:c6:91:bc:6f:1c:68:5a:47:58:62:1d:c8:c2:c3:
                    39:15:2f:5b:01:8b:67:7b:f0:fd:7d:93:ad:2a:9b:
                    fc:cf:ff:72:b0:a2:55:6e:a8:ce:24:0f:e9:18:c9:
                    fe:26:f7:3a:c9:a0:93:3f:04:37:36:50:a6:62:3a:
                    59:1e:69:c5:f5:4a:bc:c7:c9:fd:6d:ca:84:d2:51:
                    65:0b:f7:04:ff:54:b9:f7:7f:ed:c4:a0:17:b8:29:
                    31:fc:14:0f:5d:4c:78:c8:32:06:f4:dc:57:4c:06:
                    20:31:6f:48:4b:59:a1:13:30:05:cf:87:c5:79:01:
                    84:97:20:30:db:ce:57:e5:53
                Exponent: 65537 (0x10001)
        X509v3 extensions:
            X509v3 Basic Constraints: 
                CA:FALSE
            Netscape Comment: 
                OpenSSL Generated Certificate
            X509v3 Subject Key Identifier: 
                26:34:EB:C6:8E:9B:FA:FE:C3:E7:F2:A9:D9:7B:10:5F:AC:B2:15:C2
            X509v3 Authority Key Identifier: 
                keyid:B3:B3:83:6F:FA:6C:1D:EE:7C:DD:C0:48:BC:A5:DD:0C:0C:60:58:F3

    Signature Algorithm: sha256WithRSAEncryption
         39:35:48:ec:06:fb:83:a6:8e:5c:0b:f8:41:6c:da:6c:4b:8e:
         1e:e6:f9:46:47:30:fc:a9:22:c5:a9:42:1b:75:b4:dc:b2:24:
         c3:a4:b8:e8:52:1d:9f:11:17:25:e3:6c:39:88:b4:0b:69:43:
         69:71:15:2b:da:fb:45:ab:0b:f4:4c:da:a8:ba:56:9f:b1:7f:
         ad:5e:56:e4:b5:b8:8b:f8:1e:3c:66:8e:4a:1b:29:b6:04:33:
         d4:e4:c6:78:14:82:6f:31:52:40:c8:0f:f6:e0:0e:3e:c2:94:
         27:b5:a6:98:57:98:9d:be:b8:8c:f7:be:bf:8a:00:01:1e:2e:
         5e:36
-----BEGIN CERTIFICATE-----
MIICozCCAgygAwIBAgIBATANBgkqhkiG9w0BAQsFADBgMRUwEwYDVQQDDAxtbWUu
bmc0VC5jb20xCzAJBgNVBAYTAkZSMQ0wCwYDVQQIDARQQUNBMQwwCgYDVQQHDANB
aXgxEDAOBgNVBAoMB0V1cmVjb20xCzAJBgNVBAsMAkNNMB4XDTE5MDYwNTAxNDEx
NVoXDTIwMDYwNDAxNDExNVowUjELMAkGA1UEBhMCRlIxDTALBgNVBAgMBFBBQ0Ex
EDAOBgNVBAoMB0V1cmVjb20xCzAJBgNVBAsMAkNNMRUwEwYDVQQDDAxtbWUubmc0
VC5jb20wgZ8wDQYJKoZIhvcNAQEBBQADgY0AMIGJAoGBAMaRvG8caFpHWGIdyMLD
ORUvWwGLZ3vw/X2TrSqb/M//crCiVW6oziQP6RjJ/ib3Osmgkz8ENzZQpmI6WR5p
xfVKvMfJ/W3KhNJRZQv3BP9Uufd/7cSgF7gpMfwUD11MeMgyBvTcV0wGIDFvSEtZ
oRMwBc+HxXkBhJcgMNvOV+VTAgMBAAGjezB5MAkGA1UdEwQCMAAwLAYJYIZIAYb4
QgENBB8WHU9wZW5TU0wgR2VuZXJhdGVkIENlcnRpZmljYXRlMB0GA1UdDgQWBBQm
NOvGjpv6/sPn8qnZexBfrLIVwjAfBgNVHSMEGDAWgBSzs4Nv+mwd7nzdwEi8pd0M
DGBY8zANBgkqhkiG9w0BAQsFAAOBgQA5NUjsBvuDpo5cC/hBbNpsS44e5vlGRzD8
qSLFqUIbdbTcsiTDpLjoUh2fERcl42w5iLQLaUNpcRUr2vtFqwv0TNqoulafsX+t
XlbktbiL+B48Zo5KGym2BDPU5MZ4FIJvMVJAyA/24A4+wpQntaaYV5idvriM976/
igABHi5eNg==
-----END CERTIFICATE-----
